target datalayout = "e-m:e-p270:32:32-p271:32:32-p272:64:64-i64:64-i128:128-f80:128-n8:16:32:64-S128"
target triple = "x86_64-pc-linux-gnu"

%class.b3HashedOverlappingPairCache = type { %class.b3OverlappingPairCache, %class.b3AlignedObjectArray, ptr, %class.b3AlignedObjectArray.0, %class.b3AlignedObjectArray.0 }
%class.b3OverlappingPairCache = type { ptr }
%class.b3AlignedObjectArray = type <{ [4 x i8], i32, i32, [4 x i8], ptr, i8, [7 x i8] }>
%class.b3AlignedObjectArray.0 = type <{ [4 x i8], i32, i32, [4 x i8], ptr, i8, [7 x i8] }>
%struct.b3Int4 = type { %union.anon }
%union.anon = type { %struct.anon }
%struct.anon = type { i32, i32, i32, i32 }

@.str = private unnamed_addr constant [17 x i8] c"b3Error[%s,%d]:\0A\00", align 1
@.str.1 = private unnamed_addr constant [134 x i8] c"generated/home/dtcxzyw/WorkSpace/Projects/compilers/llvm-opt-benchmark/bench/bullet3/bullet3/src/Bullet3Common/b3AlignedObjectArray.h\00", align 1
@.str.2 = private unnamed_addr constant [44 x i8] c"b3AlignedObjectArray reserve out-of-memory\0A\00", align 1

; Function Attrs: mustprogress uwtable
define linkonce_odr dso_local void @_ZN18b3AlignedAllocatorI6b3Int4Lj16EE10deallocateEPS0_(ptr noundef nonnull align 1 dereferenceable(1) %0, ptr noundef %1) #0 comdat align 2 {
  %3 = alloca ptr, align 8
  %4 = alloca ptr, align 8
  store ptr %0, ptr %3, align 8, !tbaa !94
  store ptr %1, ptr %4, align 8, !tbaa !30
  %5 = load ptr, ptr %4, align 8, !tbaa !30
  call void @_Z21b3AlignedFreeInternalPv(ptr noundef %5)
  ret void
}

; Function Attrs: inlinehint mustprogress nounwind uwtable
define linkonce_odr dso_local noundef ptr @_ZN6b3Int4nwEmPv(i64 noundef %0, ptr noundef %1) #1 comdat align 2 {
  %3 = alloca i64, align 8
  %4 = alloca ptr, align 8
  store i64 %0, ptr %3, align 8, !tbaa !105
  store ptr %1, ptr %4, align 8, !tbaa !107
  %5 = load ptr, ptr %4, align 8, !tbaa !107
  ret ptr %5
}

; Function Attrs: mustprogress uwtable
define linkonce_odr dso_local noundef ptr @_ZN18b3AlignedAllocatorI6b3Int4Lj16EE8allocateEiPPKS0_(ptr noundef nonnull align 1 dereferenceable(1) %0, i32 noundef %1, ptr noundef %2) #0 comdat align 2 {
  %4 = alloca ptr, align 8
  %5 = alloca i32, align 4
  %6 = alloca ptr, align 8
  store ptr %0, ptr %4, align 8, !tbaa !94
  store i32 %1, ptr %5, align 4, !tbaa !23
  store ptr %2, ptr %6, align 8, !tbaa !103
  %7 = load i32, ptr %5, align 4, !tbaa !23
  %8 = sext i32 %7 to i64
  %9 = mul i64 16, %8
  %10 = call noundef ptr @_Z22b3AlignedAllocInternalmi(i64 noundef %9, i32 noundef 16)
  ret ptr %10
}

; Function Attrs: inlinehint mustprogress uwtable
define linkonce_odr dso_local void @_ZN20b3AlignedObjectArrayI6b3Int4E10deallocateEv(ptr noundef nonnull align 8 dereferenceable(25) %0) #3 comdat align 2 {
  %2 = alloca ptr, align 8
  store ptr %0, ptr %2, align 8, !tbaa !26
  %3 = load ptr, ptr %2, align 8
  %4 = getelementptr inbounds nuw %class.b3AlignedObjectArray, ptr %3, i32 0, i32 4
  %5 = load ptr, ptr %4, align 8, !tbaa !33
  %6 = icmp ne ptr %5, null
  br i1 %6, label %7, label %16

7:                                                ; preds = %1
  %8 = getelementptr inbounds nuw %class.b3AlignedObjectArray, ptr %3, i32 0, i32 5
  %9 = load i8, ptr %8, align 8, !tbaa !32, !range !78, !noundef !79
  %10 = trunc i8 %9 to i1
  br i1 %10, label %11, label %14

11:                                               ; preds = %7
  %12 = getelementptr inbounds nuw %class.b3AlignedObjectArray, ptr %3, i32 0, i32 4
  %13 = load ptr, ptr %12, align 8, !tbaa !33
  call void @_ZN18b3AlignedAllocatorI6b3Int4Lj16EE10deallocateEPS0_(ptr noundef nonnull align 1 dereferenceable(1) %3, ptr noundef %13)
  br label %14

14:                                               ; preds = %11, %7
  %15 = getelementptr inbounds nuw %class.b3AlignedObjectArray, ptr %3, i32 0, i32 4
  store ptr null, ptr %15, align 8, !tbaa !33
  br label %16

16:                                               ; preds = %14, %1
  ret void
}

; Function Attrs: inlinehint mustprogress nounwind uwtable
define linkonce_odr dso_local void @_ZN20b3AlignedObjectArrayI6b3Int4E7destroyEii(ptr noundef nonnull align 8 dereferenceable(25) %0, i32 noundef %1, i32 noundef %2) #1 comdat align 2 {
  %4 = alloca ptr, align 8
  %5 = alloca i32, align 4
  %6 = alloca i32, align 4
  %7 = alloca i32, align 4
  store ptr %0, ptr %4, align 8, !tbaa !26
  store i32 %1, ptr %5, align 4, !tbaa !23
  store i32 %2, ptr %6, align 4, !tbaa !23
  call void @llvm.lifetime.start.p0(i64 4, ptr %7) #10
  %8 = load i32, ptr %5, align 4, !tbaa !23
  store i32 %8, ptr %7, align 4, !tbaa !23
  br label %9

9:                                                ; preds = %14, %3
  %10 = load i32, ptr %7, align 4, !tbaa !23
  %11 = load i32, ptr %6, align 4, !tbaa !23
  %12 = icmp slt i32 %10, %11
  br i1 %12, label %13, label %17

13:                                               ; preds = %9
  br label %14

14:                                               ; preds = %13
  %15 = load i32, ptr %7, align 4, !tbaa !23
  %16 = add nsw i32 %15, 1
  store i32 %16, ptr %7, align 4, !tbaa !23
  br label %9, !llvm.loop !100

17:                                               ; preds = %9
  call void @llvm.lifetime.end.p0(i64 4, ptr %7) #10
  ret void
}

; Function Attrs: inlinehint mustprogress uwtable
define linkonce_odr dso_local void @_ZNK20b3AlignedObjectArrayI6b3Int4E4copyEiiPS0_(ptr noundef nonnull align 8 dereferenceable(25) %0, i32 noundef %1, i32 noundef %2, ptr noundef %3) #3 comdat align 2 {
  %5 = alloca ptr, align 8
  %6 = alloca i32, align 4
  %7 = alloca i32, align 4
  %8 = alloca ptr, align 8
  %9 = alloca i32, align 4
  store ptr %0, ptr %5, align 8, !tbaa !26
  store i32 %1, ptr %6, align 4, !tbaa !23
  store i32 %2, ptr %7, align 4, !tbaa !23
  store ptr %3, ptr %8, align 8, !tbaa !30
  %10 = load ptr, ptr %5, align 8
  call void @llvm.lifetime.start.p0(i64 4, ptr %9) #10
  %11 = load i32, ptr %6, align 4, !tbaa !23
  store i32 %11, ptr %9, align 4, !tbaa !23
  br label %12

12:                                               ; preds = %27, %4
  %13 = load i32, ptr %9, align 4, !tbaa !23
  %14 = load i32, ptr %7, align 4, !tbaa !23
  %15 = icmp slt i32 %13, %14
  br i1 %15, label %16, label %30

16:                                               ; preds = %12
  %17 = load ptr, ptr %8, align 8, !tbaa !30
  %18 = load i32, ptr %9, align 4, !tbaa !23
  %19 = sext i32 %18 to i64
  %20 = getelementptr inbounds %struct.b3Int4, ptr %17, i64 %19
  %21 = call noundef ptr @_ZN6b3Int4nwEmPv(i64 noundef 16, ptr noundef %20)
  %22 = getelementptr inbounds nuw %class.b3AlignedObjectArray, ptr %10, i32 0, i32 4
  %23 = load ptr, ptr %22, align 8, !tbaa !33
  %24 = load i32, ptr %9, align 4, !tbaa !23
  %25 = sext i32 %24 to i64
  %26 = getelementptr inbounds %struct.b3Int4, ptr %23, i64 %25
  call void @llvm.memcpy.p0.p0.i64(ptr align 16 %21, ptr align 16 %26, i64 16, i1 false), !tbaa.struct !59
  br label %27

27:                                               ; preds = %16
  %28 = load i32, ptr %9, align 4, !tbaa !23
  %29 = add nsw i32 %28, 1
  store i32 %29, ptr %9, align 4, !tbaa !23
  br label %12, !llvm.loop !102

30:                                               ; preds = %12
  call void @llvm.lifetime.end.p0(i64 4, ptr %9) #10
  ret void
}

; Function Attrs: inlinehint mustprogress nounwind uwtable
define linkonce_odr dso_local noundef i32 @_ZNK20b3AlignedObjectArrayI6b3Int4E4sizeEv(ptr noundef nonnull align 8 dereferenceable(25) %0) #1 comdat align 2 {
  %2 = alloca ptr, align 8
  store ptr %0, ptr %2, align 8, !tbaa !26
  %3 = load ptr, ptr %2, align 8
  %4 = getelementptr inbounds nuw %class.b3AlignedObjectArray, ptr %3, i32 0, i32 1
  %5 = load i32, ptr %4, align 4, !tbaa !31
  ret i32 %5
}

; Function Attrs: inlinehint mustprogress uwtable
define linkonce_odr dso_local noundef ptr @_ZN20b3AlignedObjectArrayI6b3Int4E8allocateEi(ptr noundef nonnull align 8 dereferenceable(25) %0, i32 noundef %1) #3 comdat align 2 {
  %3 = alloca ptr, align 8
  %4 = alloca ptr, align 8
  %5 = alloca i32, align 4
  store ptr %0, ptr %4, align 8, !tbaa !26
  store i32 %1, ptr %5, align 4, !tbaa !23
  %6 = load ptr, ptr %4, align 8
  %7 = load i32, ptr %5, align 4, !tbaa !23
  %8 = icmp ne i32 %7, 0
  br i1 %8, label %9, label %12

9:                                                ; preds = %2
  %10 = load i32, ptr %5, align 4, !tbaa !23
  %11 = call noundef ptr @_ZN18b3AlignedAllocatorI6b3Int4Lj16EE8allocateEiPPKS0_(ptr noundef nonnull align 1 dereferenceable(1) %6, i32 noundef %10, ptr noundef null)
  store ptr %11, ptr %3, align 8
  br label %13

12:                                               ; preds = %2
  store ptr null, ptr %3, align 8
  br label %13

13:                                               ; preds = %12, %9
  %14 = load ptr, ptr %3, align 8
  ret ptr %14
}

; Function Attrs: inlinehint mustprogress nounwind uwtable
define linkonce_odr dso_local noundef i32 @_ZNK20b3AlignedObjectArrayI6b3Int4E8capacityEv(ptr noundef nonnull align 8 dereferenceable(25) %0) #1 comdat align 2 {
  %2 = alloca ptr, align 8
  store ptr %0, ptr %2, align 8, !tbaa !26
  %3 = load ptr, ptr %2, align 8
  %4 = getelementptr inbounds nuw %class.b3AlignedObjectArray, ptr %3, i32 0, i32 2
  %5 = load i32, ptr %4, align 8, !tbaa !34
  ret i32 %5
}

; Function Attrs: inlinehint mustprogress nounwind uwtable
define linkonce_odr dso_local void @_ZN20b3AlignedObjectArrayIiE4initEv(ptr noundef nonnull align 8 dereferenceable(25) %0) #1 comdat align 2 {
  %2 = alloca ptr, align 8
  store ptr %0, ptr %2, align 8, !tbaa !28
  %3 = load ptr, ptr %2, align 8
  %4 = getelementptr inbounds nuw %class.b3AlignedObjectArray.0, ptr %3, i32 0, i32 5
  store i8 1, ptr %4, align 8, !tbaa !98
  %5 = getelementptr inbounds nuw %class.b3AlignedObjectArray.0, ptr %3, i32 0, i32 4
  store ptr null, ptr %5, align 8, !tbaa !56
  %6 = getelementptr inbounds nuw %class.b3AlignedObjectArray.0, ptr %3, i32 0, i32 1
  store i32 0, ptr %6, align 4, !tbaa !55
  %7 = getelementptr inbounds nuw %class.b3AlignedObjectArray.0, ptr %3, i32 0, i32 2
  store i32 0, ptr %7, align 8, !tbaa !99
  ret void
}

; Function Attrs: mustprogress nounwind uwtable
define linkonce_odr dso_local void @_ZN18b3AlignedAllocatorIiLj16EEC2Ev(ptr noundef nonnull align 1 dereferenceable(1) %0) unnamed_addr #4 comdat align 2 {
  %2 = alloca ptr, align 8
  store ptr %0, ptr %2, align 8, !tbaa !96
  ret void
}

; Function Attrs: inlinehint mustprogress nounwind uwtable
define linkonce_odr dso_local void @_ZN20b3AlignedObjectArrayI6b3Int4E4initEv(ptr noundef nonnull align 8 dereferenceable(25) %0) #1 comdat align 2 {
  %2 = alloca ptr, align 8
  store ptr %0, ptr %2, align 8, !tbaa !26
  %3 = load ptr, ptr %2, align 8
  %4 = getelementptr inbounds nuw %class.b3AlignedObjectArray, ptr %3, i32 0, i32 5
  store i8 1, ptr %4, align 8, !tbaa !32
  %5 = getelementptr inbounds nuw %class.b3AlignedObjectArray, ptr %3, i32 0, i32 4
  store ptr null, ptr %5, align 8, !tbaa !33
  %6 = getelementptr inbounds nuw %class.b3AlignedObjectArray, ptr %3, i32 0, i32 1
  store i32 0, ptr %6, align 4, !tbaa !31
  %7 = getelementptr inbounds nuw %class.b3AlignedObjectArray, ptr %3, i32 0, i32 2
  store i32 0, ptr %7, align 8, !tbaa !34
  ret void
}

; Function Attrs: mustprogress nounwind uwtable
define linkonce_odr dso_local void @_ZN18b3AlignedAllocatorI6b3Int4Lj16EEC2Ev(ptr noundef nonnull align 1 dereferenceable(1) %0) unnamed_addr #4 comdat align 2 {
  %2 = alloca ptr, align 8
  store ptr %0, ptr %2, align 8, !tbaa !94
  ret void
}

; Function Attrs: mustprogress nounwind uwtable
define linkonce_odr dso_local void @_ZN22b3OverlappingPairCacheD2Ev(ptr noundef nonnull align 8 dereferenceable(8) %0) unnamed_addr #4 comdat align 2 {
  %2 = alloca ptr, align 8
  store ptr %0, ptr %2, align 8, !tbaa !24
  ret void
}

; Function Attrs: inlinehint mustprogress uwtable
define linkonce_odr dso_local void @_ZN20b3AlignedObjectArrayI6b3Int4E7reserveEi(ptr noundef nonnull align 8 dereferenceable(25) %0, i32 noundef %1) #3 comdat align 2 {
  %3 = alloca ptr, align 8
  %4 = alloca i32, align 4
  %5 = alloca ptr, align 8
  store ptr %0, ptr %3, align 8, !tbaa !26
  store i32 %1, ptr %4, align 4, !tbaa !23
  %6 = load ptr, ptr %3, align 8
  %7 = call noundef i32 @_ZNK20b3AlignedObjectArrayI6b3Int4E8capacityEv(ptr noundef nonnull align 8 dereferenceable(25) %6)
  %8 = load i32, ptr %4, align 4, !tbaa !23
  %9 = icmp slt i32 %7, %8
  br i1 %9, label %10, label %29

10:                                               ; preds = %2
  call void @llvm.lifetime.start.p0(i64 8, ptr %5) #10
  %11 = load i32, ptr %4, align 4, !tbaa !23
  %12 = call noundef ptr @_ZN20b3AlignedObjectArrayI6b3Int4E8allocateEi(ptr noundef nonnull align 8 dereferenceable(25) %6, i32 noundef %11)
  store ptr %12, ptr %5, align 8, !tbaa !30
  %13 = load ptr, ptr %5, align 8, !tbaa !30
  %14 = icmp eq ptr %13, null
  br i1 %14, label %15, label %20

15:                                               ; preds = %10
  br label %16

16:                                               ; preds = %15
  call void (ptr, ...) @b3OutputErrorMessageVarArgsInternal(ptr noundef @.str, ptr noundef @.str.1, i32 noundef 301)
  call void (ptr, ...) @b3OutputErrorMessageVarArgsInternal(ptr noundef @.str.2)
  br label %17

17:                                               ; preds = %16
  br label %18

18:                                               ; preds = %17
  store i32 0, ptr %4, align 4, !tbaa !23
  %19 = getelementptr inbounds nuw %class.b3AlignedObjectArray, ptr %6, i32 0, i32 1
  store i32 0, ptr %19, align 4, !tbaa !31
  br label %20

20:                                               ; preds = %18, %10
  %21 = call noundef i32 @_ZNK20b3AlignedObjectArrayI6b3Int4E4sizeEv(ptr noundef nonnull align 8 dereferenceable(25) %6)
  %22 = load ptr, ptr %5, align 8, !tbaa !30
  call void @_ZNK20b3AlignedObjectArrayI6b3Int4E4copyEiiPS0_(ptr noundef nonnull align 8 dereferenceable(25) %6, i32 noundef 0, i32 noundef %21, ptr noundef %22)
  %23 = call noundef i32 @_ZNK20b3AlignedObjectArrayI6b3Int4E4sizeEv(ptr noundef nonnull align 8 dereferenceable(25) %6)
  call void @_ZN20b3AlignedObjectArrayI6b3Int4E7destroyEii(ptr noundef nonnull align 8 dereferenceable(25) %6, i32 noundef 0, i32 noundef %23)
  call void @_ZN20b3AlignedObjectArrayI6b3Int4E10deallocateEv(ptr noundef nonnull align 8 dereferenceable(25) %6)
  %24 = getelementptr inbounds nuw %class.b3AlignedObjectArray, ptr %6, i32 0, i32 5
  store i8 1, ptr %24, align 8, !tbaa !32
  %25 = load ptr, ptr %5, align 8, !tbaa !30
  %26 = getelementptr inbounds nuw %class.b3AlignedObjectArray, ptr %6, i32 0, i32 4
  store ptr %25, ptr %26, align 8, !tbaa !33
  %27 = load i32, ptr %4, align 4, !tbaa !23
  %28 = getelementptr inbounds nuw %class.b3AlignedObjectArray, ptr %6, i32 0, i32 2
  store i32 %27, ptr %28, align 8, !tbaa !34
  call void @llvm.lifetime.end.p0(i64 8, ptr %5) #10
  br label %29

29:                                               ; preds = %20, %2
  ret void
}

; Function Attrs: mustprogress uwtable
define linkonce_odr dso_local void @_ZN20b3AlignedObjectArrayIiEC2Ev(ptr noundef nonnull align 8 dereferenceable(25) %0) unnamed_addr #0 comdat align 2 {
  %2 = alloca ptr, align 8
  store ptr %0, ptr %2, align 8, !tbaa !28
  %3 = load ptr, ptr %2, align 8
  call void @_ZN18b3AlignedAllocatorIiLj16EEC2Ev(ptr noundef nonnull align 1 dereferenceable(1) %3)
  call void @_ZN20b3AlignedObjectArrayIiE4initEv(ptr noundef nonnull align 8 dereferenceable(25) %3)
  ret void
}

; Function Attrs: mustprogress uwtable
define linkonce_odr dso_local void @_ZN20b3AlignedObjectArrayI6b3Int4EC2Ev(ptr noundef nonnull align 8 dereferenceable(25) %0) unnamed_addr #0 comdat align 2 {
  %2 = alloca ptr, align 8
  store ptr %0, ptr %2, align 8, !tbaa !26
  %3 = load ptr, ptr %2, align 8
  call void @_ZN18b3AlignedAllocatorI6b3Int4Lj16EEC2Ev(ptr noundef nonnull align 1 dereferenceable(1) %3)
  call void @_ZN20b3AlignedObjectArrayI6b3Int4E4initEv(ptr noundef nonnull align 8 dereferenceable(25) %3)
  ret void
}

; Function Attrs: inlinehint mustprogress nounwind uwtable
define linkonce_odr dso_local void @_ZN22b3OverlappingPairCacheC2Ev(ptr noundef nonnull align 8 dereferenceable(8) %0) unnamed_addr #1 comdat align 2 {
  %2 = alloca ptr, align 8
  store ptr %0, ptr %2, align 8, !tbaa !24
  %3 = load ptr, ptr %2, align 8
  store ptr getelementptr inbounds inrange(-16, 128) ({ [18 x ptr] }, ptr @_ZTV22b3OverlappingPairCache, i32 0, i32 0, i32 2), ptr %3, align 8, !tbaa !9
  ret void
}

; Function Attrs: mustprogress uwtable
define dso_local void @_ZN28b3HashedOverlappingPairCacheC2Ev(ptr noundef nonnull align 8 dereferenceable(112) %0) unnamed_addr #0 align 2 personality ptr @__gxx_personality_v0 {
  %2 = alloca ptr, align 8
  %3 = alloca ptr, align 8
  %4 = alloca i32, align 4
  %5 = alloca i32, align 4
  store ptr %0, ptr %2, align 8, !tbaa !4
  %6 = load ptr, ptr %2, align 8
  call void @_ZN22b3OverlappingPairCacheC2Ev(ptr noundef nonnull align 8 dereferenceable(8) %6) #10
  store ptr getelementptr inbounds inrange(-16, 128) ({ [18 x ptr] }, ptr @_ZTV28b3HashedOverlappingPairCache, i32 0, i32 0, i32 2), ptr %6, align 8, !tbaa !9
  %7 = getelementptr inbounds nuw %class.b3HashedOverlappingPairCache, ptr %6, i32 0, i32 1
  invoke void @_ZN20b3AlignedObjectArrayI6b3Int4EC2Ev(ptr noundef nonnull align 8 dereferenceable(25) %7)
          to label %8 unwind label %18

8:                                                ; preds = %1
  %9 = getelementptr inbounds nuw %class.b3HashedOverlappingPairCache, ptr %6, i32 0, i32 2
  store ptr null, ptr %9, align 8, !tbaa !11
  %10 = getelementptr inbounds nuw %class.b3HashedOverlappingPairCache, ptr %6, i32 0, i32 3
  invoke void @_ZN20b3AlignedObjectArrayIiEC2Ev(ptr noundef nonnull align 8 dereferenceable(25) %10)
          to label %11 unwind label %22

11:                                               ; preds = %8
  %12 = getelementptr inbounds nuw %class.b3HashedOverlappingPairCache, ptr %6, i32 0, i32 4
  invoke void @_ZN20b3AlignedObjectArrayIiEC2Ev(ptr noundef nonnull align 8 dereferenceable(25) %12)
          to label %13 unwind label %26

13:                                               ; preds = %11
  call void @llvm.lifetime.start.p0(i64 4, ptr %5) #10
  store i32 2, ptr %5, align 4, !tbaa !23
  %14 = getelementptr inbounds nuw %class.b3HashedOverlappingPairCache, ptr %6, i32 0, i32 1
  %15 = load i32, ptr %5, align 4, !tbaa !23
  invoke void @_ZN20b3AlignedObjectArrayI6b3Int4E7reserveEi(ptr noundef nonnull align 8 dereferenceable(25) %14, i32 noundef %15)
          to label %16 unwind label %30

16:                                               ; preds = %13
  invoke void @_ZN28b3HashedOverlappingPairCache10growTablesEv(ptr noundef nonnull align 8 dereferenceable(112) %6)
          to label %17 unwind label %30

17:                                               ; preds = %16
  call void @llvm.lifetime.end.p0(i64 4, ptr %5) #10
  ret void

18:                                               ; preds = %1
  %19 = landingpad { ptr, i32 }
          cleanup
  %20 = extractvalue { ptr, i32 } %19, 0
  store ptr %20, ptr %3, align 8
  %21 = extractvalue { ptr, i32 } %19, 1
  store i32 %21, ptr %4, align 4
  br label %36

22:                                               ; preds = %8
  %23 = landingpad { ptr, i32 }
          cleanup
  %24 = extractvalue { ptr, i32 } %23, 0
  store ptr %24, ptr %3, align 8
  %25 = extractvalue { ptr, i32 } %23, 1
  store i32 %25, ptr %4, align 4
  br label %35

26:                                               ; preds = %11
  %27 = landingpad { ptr, i32 }
          cleanup
  %28 = extractvalue { ptr, i32 } %27, 0
  store ptr %28, ptr %3, align 8
  %29 = extractvalue { ptr, i32 } %27, 1
  store i32 %29, ptr %4, align 4
  br label %34

30:                                               ; preds = %16, %13
  %31 = landingpad { ptr, i32 }
          cleanup
  %32 = extractvalue { ptr, i32 } %31, 0
  store ptr %32, ptr %3, align 8
  %33 = extractvalue { ptr, i32 } %31, 1
  store i32 %33, ptr %4, align 4
  call void @llvm.lifetime.end.p0(i64 4, ptr %5) #10
  call void @_ZN20b3AlignedObjectArrayIiED2Ev(ptr noundef nonnull align 8 dereferenceable(25) %12) #10
  br label %34

34:                                               ; preds = %30, %26
  call void @_ZN20b3AlignedObjectArrayIiED2Ev(ptr noundef nonnull align 8 dereferenceable(25) %10) #10
  br label %35

35:                                               ; preds = %34, %22
  call void @_ZN20b3AlignedObjectArrayI6b3Int4ED2Ev(ptr noundef nonnull align 8 dereferenceable(25) %7) #10
  br label %36

36:                                               ; preds = %35, %18
  call void @_ZN22b3OverlappingPairCacheD2Ev(ptr noundef nonnull align 8 dereferenceable(8) %6) #10
  br label %37

37:                                               ; preds = %36
  %38 = load ptr, ptr %3, align 8
  %39 = load i32, ptr %4, align 4
  %40 = insertvalue { ptr, i32 } poison, ptr %38, 0
  %41 = insertvalue { ptr, i32 } %40, i32 %39, 1
  resume { ptr, i32 } %41
}