; Function Attrs: mustprogress uwtable
define dso_local void @_ZN28b3HashedOverlappingPairCacheC2Ev(ptr noundef nonnull align 8 dereferenceable(112) initializes((0, 8), (12, 20), (24, 33), (40, 48), (52, 60), (64, 73), (84, 92), (96, 105)) %0) unnamed_addr #0 align 2 personality ptr @__gxx_personality_v0 {
  store ptr getelementptr inbounds nuw inrange(-16, 128) (i8, ptr @_ZTV28b3HashedOverlappingPairCache, i64 16), ptr %0, align 8, !tbaa !4
  %2 = getelementptr inbounds nuw i8, ptr %0, i64 32
  store i8 1, ptr %2, align 8, !tbaa !7
  %3 = getelementptr inbounds nuw i8, ptr %0, i64 24
  store ptr null, ptr %3, align 8, !tbaa !15
  %4 = getelementptr inbounds nuw i8, ptr %0, i64 12
  store i32 0, ptr %4, align 4, !tbaa !16
  %5 = getelementptr inbounds nuw i8, ptr %0, i64 16
  store i32 0, ptr %5, align 8, !tbaa !17
  %6 = getelementptr inbounds nuw i8, ptr %0, i64 40
  store ptr null, ptr %6, align 8, !tbaa !18
  %7 = getelementptr inbounds nuw i8, ptr %0, i64 72
  store i8 1, ptr %7, align 8, !tbaa !25
  %8 = getelementptr inbounds nuw i8, ptr %0, i64 64
  store ptr null, ptr %8, align 8, !tbaa !26
  %9 = getelementptr inbounds nuw i8, ptr %0, i64 52
  store i32 0, ptr %9, align 4, !tbaa !27
  %10 = getelementptr inbounds nuw i8, ptr %0, i64 56
  store i32 0, ptr %10, align 8, !tbaa !28
  %11 = getelementptr inbounds nuw i8, ptr %0, i64 104
  store i8 1, ptr %11, align 8, !tbaa !25
  %12 = getelementptr inbounds nuw i8, ptr %0, i64 96
  store ptr null, ptr %12, align 8, !tbaa !26
  %13 = getelementptr inbounds nuw i8, ptr %0, i64 84
  store i32 0, ptr %13, align 4, !tbaa !27
  %14 = getelementptr inbounds nuw i8, ptr %0, i64 88
  store i32 0, ptr %14, align 8, !tbaa !28
  %15 = invoke noundef ptr @_Z22b3AlignedAllocInternalmi(i64 noundef 32, i32 noundef 16)
          to label %.noexc unwind label %30

.noexc:                                           ; preds = %1
  %16 = icmp eq ptr %15, null
  br i1 %16, label %_ZNK20b3AlignedObjectArrayI6b3Int4E4copyEiiPS0_.exit15.i, label %.split.i

.split.i:                                         ; preds = %.noexc
  %17 = load i32, ptr %4, align 4, !tbaa !16
  %18 = icmp sgt i32 %17, 0
  br i1 %18, label %.lr.ph.i.i, label %_ZNK20b3AlignedObjectArrayI6b3Int4E4copyEiiPS0_.exit.i

.lr.ph.i.i:                                       ; preds = %.split.i
  %wide.trip.count.i.i = zext nneg i32 %17 to i64
  br label %19

19:                                               ; preds = %19, %.lr.ph.i.i
  %indvars.iv.i.i = phi i64 [ 0, %.lr.ph.i.i ], [ %indvars.iv.next.i.i, %19 ]
  %20 = getelementptr inbounds nuw %struct.b3Int4, ptr %15, i64 %indvars.iv.i.i
  %21 = load ptr, ptr %3, align 8, !tbaa !15
  %22 = getelementptr inbounds nuw %struct.b3Int4, ptr %21, i64 %indvars.iv.i.i
  tail call void @llvm.memcpy.p0.p0.i64(ptr noundef nonnull align 16 dereferenceable(16) %20, ptr noundef nonnull align 16 dereferenceable(16) %22, i64 16, i1 false), !tbaa.struct !29
  %indvars.iv.next.i.i = add nuw nsw i64 %indvars.iv.i.i, 1
  %exitcond.not.i.i = icmp eq i64 %indvars.iv.next.i.i, %wide.trip.count.i.i
  br i1 %exitcond.not.i.i, label %_ZNK20b3AlignedObjectArrayI6b3Int4E4copyEiiPS0_.exit.i, label %19, !llvm.loop !31

_ZNK20b3AlignedObjectArrayI6b3Int4E4copyEiiPS0_.exit15.i: ; preds = %.noexc
  invoke void (ptr, ...) @b3OutputErrorMessageVarArgsInternal(ptr noundef nonnull @.str, ptr noundef nonnull @.str.1, i32 noundef 301)
          to label %.noexc9 unwind label %30

.noexc9:                                          ; preds = %_ZNK20b3AlignedObjectArrayI6b3Int4E4copyEiiPS0_.exit15.i
  invoke void (ptr, ...) @b3OutputErrorMessageVarArgsInternal(ptr noundef nonnull @.str.2)
          to label %.noexc10 unwind label %30

.noexc10:                                         ; preds = %.noexc9
  store i32 0, ptr %4, align 4, !tbaa !16
  br label %_ZNK20b3AlignedObjectArrayI6b3Int4E4copyEiiPS0_.exit.i

_ZNK20b3AlignedObjectArrayI6b3Int4E4copyEiiPS0_.exit.i: ; preds = %19, %.noexc10, %.split.i
  %.0.i = phi i32 [ 0, %.noexc10 ], [ 2, %.split.i ], [ 2, %19 ]
  %23 = load ptr, ptr %3, align 8, !tbaa !15
  %.not.i16.i = icmp eq ptr %23, null
  br i1 %.not.i16.i, label %28, label %24

24:                                               ; preds = %_ZNK20b3AlignedObjectArrayI6b3Int4E4copyEiiPS0_.exit.i
  %25 = load i8, ptr %2, align 8, !tbaa !7, !range !33, !noundef !34
  %26 = trunc nuw i8 %25 to i1
  br i1 %26, label %27, label %28

27:                                               ; preds = %24
  invoke void @_Z21b3AlignedFreeInternalPv(ptr noundef nonnull %23)
          to label %28 unwind label %30

28:                                               ; preds = %27, %24, %_ZNK20b3AlignedObjectArrayI6b3Int4E4copyEiiPS0_.exit.i
  store i8 1, ptr %2, align 8, !tbaa !7
  store ptr %15, ptr %3, align 8, !tbaa !15
  store i32 %.0.i, ptr %5, align 8, !tbaa !17
  invoke void @_ZN28b3HashedOverlappingPairCache10growTablesEv(ptr noundef nonnull align 8 dereferenceable(112) %0)
          to label %29 unwind label %30

29:                                               ; preds = %28
  ret void

30:                                               ; preds = %27, %.noexc9, %_ZNK20b3AlignedObjectArrayI6b3Int4E4copyEiiPS0_.exit15.i, %1, %28
  %31 = landingpad { ptr, i32 }
          cleanup
  %32 = getelementptr inbounds nuw i8, ptr %0, i64 80
  %33 = getelementptr inbounds nuw i8, ptr %0, i64 48
  %34 = getelementptr inbounds nuw i8, ptr %0, i64 8
  tail call void @_ZN20b3AlignedObjectArrayIiED2Ev(ptr noundef nonnull align 8 dereferenceable(25) %32) #14
  tail call void @_ZN20b3AlignedObjectArrayIiED2Ev(ptr noundef nonnull align 8 dereferenceable(25) %33) #14
  tail call void @_ZN20b3AlignedObjectArrayI6b3Int4ED2Ev(ptr noundef nonnull align 8 dereferenceable(25) %34) #14
  resume { ptr, i32 } %31
}